
p2.elf:     file format elf32-littlearm

Sections:
Idx Name          Size      VMA       LMA       File off  Algn
  0 .data         00000078  0c100000  0c100000  00008000  2**2
                  CONTENTS, ALLOC, LOAD, DATA
  1 .bss          0000000c  0c100078  0c100078  00008078  2**2
                  ALLOC
  2 .text         000010fc  0c100084  0c100084  00008084  2**2
                  CONTENTS, ALLOC, LOAD, READONLY, CODE
  3 .debug_abbrev 0000037c  00000000  00000000  00009180  2**0
                  CONTENTS, READONLY, DEBUGGING
  4 .debug_info   000007b8  00000000  00000000  000094fc  2**0
                  CONTENTS, READONLY, DEBUGGING
  5 .debug_line   000006ec  00000000  00000000  00009cb4  2**0
                  CONTENTS, READONLY, DEBUGGING
  6 .debug_macinfo 0001f6ca  00000000  00000000  0000a3a0  2**0
                  CONTENTS, READONLY, DEBUGGING
  7 .debug_loc    00000420  00000000  00000000  00029a6a  2**0
                  CONTENTS, READONLY, DEBUGGING
  8 .debug_pubnames 000001c8  00000000  00000000  00029e8a  2**0
                  CONTENTS, READONLY, DEBUGGING
  9 .debug_pubtypes 000000e7  00000000  00000000  0002a052  2**0
                  CONTENTS, READONLY, DEBUGGING
 10 .debug_aranges 000000e0  00000000  00000000  0002a140  2**3
                  CONTENTS, READONLY, DEBUGGING
 11 .debug_str    000002a7  00000000  00000000  0002a220  2**0
                  CONTENTS, READONLY, DEBUGGING
 12 .comment      0000002a  00000000  00000000  0002a4c7  2**0
                  CONTENTS, READONLY
 13 .ARM.attributes 00000030  00000000  00000000  0002a4f1  2**0
                  CONTENTS, READONLY
 14 .debug_frame  00000380  00000000  00000000  0002a524  2**2
                  CONTENTS, READONLY, DEBUGGING

Disassembly of section .text:

0c100084 <D8Led_init>:
static unsigned int Digits[] = { DIGIT_0, DIGIT_1, DIGIT_2, DIGIT_3, 
	 							 DIGIT_4, DIGIT_5, DIGIT_6, DIGIT_7, 
								 DIGIT_8, DIGIT_9, DIGIT_A, DIGIT_B,
								 DIGIT_C, DIGIT_D, DIGIT_E, DIGIT_F };
			  					  
void D8Led_init(void) {
 c100084:	e1a0c00d 	mov	ip, sp
 c100088:	e92dd800 	push	{fp, ip, lr, pc}
 c10008c:	e24cb004 	sub	fp, ip, #4
    LED8ADDR = ~0 ;
 c100090:	e3a03785 	mov	r3, #34865152	; 0x2140000
 c100094:	e3e02000 	mvn	r2, #0
 c100098:	e5c32000 	strb	r2, [r3]
}
 c10009c:	e24bd00c 	sub	sp, fp, #12
 c1000a0:	e89d6800 	ldm	sp, {fp, sp, lr}
 c1000a4:	e12fff1e 	bx	lr

0c1000a8 <D8Led_segment>:

void D8Led_segment(int value) {
 c1000a8:	e1a0c00d 	mov	ip, sp
 c1000ac:	e92dd800 	push	{fp, ip, lr, pc}
 c1000b0:	e24cb004 	sub	fp, ip, #4
 c1000b4:	e24dd008 	sub	sp, sp, #8
 c1000b8:	e50b0010 	str	r0, [fp, #-16]
	if( (value >= 0) && (value < 8) ) {
 c1000bc:	e51b3010 	ldr	r3, [fp, #-16]
 c1000c0:	e3530000 	cmp	r3, #0
 c1000c4:	ba00000a 	blt	c1000f4 <D8Led_segment+0x4c>
 c1000c8:	e51b3010 	ldr	r3, [fp, #-16]
 c1000cc:	e3530007 	cmp	r3, #7
 c1000d0:	ca000007 	bgt	c1000f4 <D8Led_segment+0x4c>
		// COMPLETAR: debemos escribir en el display (LED8ADDR) el valor
		// correcto para que se ilumine el segmento que est· en la posiciÛn
		// value del array Segmentes. Hay que tener en cuente que el display
		// usa lÛgica invertida (0 enciende, 1 apaga).
		 LED8ADDR = ~Segments[value];
 c1000d4:	e3a03785 	mov	r3, #34865152	; 0x2140000
 c1000d8:	e59f2020 	ldr	r2, [pc, #32]	; c100100 <D8Led_segment+0x58>
 c1000dc:	e51b1010 	ldr	r1, [fp, #-16]
 c1000e0:	e7922101 	ldr	r2, [r2, r1, lsl #2]
 c1000e4:	e20220ff 	and	r2, r2, #255	; 0xff
 c1000e8:	e1e02002 	mvn	r2, r2
 c1000ec:	e20220ff 	and	r2, r2, #255	; 0xff
 c1000f0:	e5c32000 	strb	r2, [r3]
		}
}
 c1000f4:	e24bd00c 	sub	sp, fp, #12
 c1000f8:	e89d6800 	ldm	sp, {fp, sp, lr}
 c1000fc:	e12fff1e 	bx	lr
 c100100:	0c100000 	.word	0x0c100000

0c100104 <D8Led_digit>:

void D8Led_digit(int value) {
 c100104:	e1a0c00d 	mov	ip, sp
 c100108:	e92dd800 	push	{fp, ip, lr, pc}
 c10010c:	e24cb004 	sub	fp, ip, #4
 c100110:	e24dd008 	sub	sp, sp, #8
 c100114:	e50b0010 	str	r0, [fp, #-16]
	if( (value >= 0) && (value < 16) ) {
 c100118:	e51b3010 	ldr	r3, [fp, #-16]
 c10011c:	e3530000 	cmp	r3, #0
 c100120:	ba00000a 	blt	c100150 <D8Led_digit+0x4c>
 c100124:	e51b3010 	ldr	r3, [fp, #-16]
 c100128:	e353000f 	cmp	r3, #15
 c10012c:	ca000007 	bgt	c100150 <D8Led_digit+0x4c>
		// COMPLETAR: debemos escribir en el display (LED8ADDR) el valor
		// correcto para que se ilumine el dÌgito que est· en la posiciÛn
		// value del array Digits. Hay que tener en cuente que el display
		// usa lÛgica invertida (0 enciende, 1 apaga).
		LED8ADDR = ~Digits[value];
 c100130:	e3a03785 	mov	r3, #34865152	; 0x2140000
 c100134:	e59f2020 	ldr	r2, [pc, #32]	; c10015c <D8Led_digit+0x58>
 c100138:	e51b1010 	ldr	r1, [fp, #-16]
 c10013c:	e7922101 	ldr	r2, [r2, r1, lsl #2]
 c100140:	e20220ff 	and	r2, r2, #255	; 0xff
 c100144:	e1e02002 	mvn	r2, r2
 c100148:	e20220ff 	and	r2, r2, #255	; 0xff
 c10014c:	e5c32000 	strb	r2, [r3]
	}
}
 c100150:	e24bd00c 	sub	sp, fp, #12
 c100154:	e89d6800 	ldm	sp, {fp, sp, lr}
 c100158:	e12fff1e 	bx	lr
 c10015c:	0c100020 	.word	0x0c100020

0c100160 <read_button>:
#include "button.h"
#include "leds.h"
#include "gpio.h"

unsigned int read_button(void)
{
 c100160:	e1a0c00d 	mov	ip, sp
 c100164:	e92dd800 	push	{fp, ip, lr, pc}
 c100168:	e24cb004 	sub	fp, ip, #4
 c10016c:	e24dd008 	sub	sp, sp, #8
	unsigned int buttons = 0;
 c100170:	e3a03000 	mov	r3, #0
 c100174:	e50b3010 	str	r3, [fp, #-16]
	//COMPLETAR utilizando el interfaz del puerto G de gpio.h debemos leer los
	//pines 6 y 7 del puerto G (portG_read) debemos devolver un valor (buttons)
	//en el que el bit 0 (el menos significativo) representa el estado del bot√≥n
	//del pin 6 y el bit 1 representa el estado del bot√≥n del pin 7 (a 1 si
	//est√°n pulsados a 0 si no lo est√°n).
	portG_read(6, &val);
 c100178:	e24b3011 	sub	r3, fp, #17
 c10017c:	e3a00006 	mov	r0, #6
 c100180:	e1a01003 	mov	r1, r3
 c100184:	eb000185 	bl	c1007a0 <portG_read>
	if(val == LOW) buttons |= BUT1;
 c100188:	e55b3011 	ldrb	r3, [fp, #-17]	; 0xffffffef
 c10018c:	e3530000 	cmp	r3, #0
 c100190:	1a000002 	bne	c1001a0 <read_button+0x40>
 c100194:	e51b3010 	ldr	r3, [fp, #-16]
 c100198:	e3833001 	orr	r3, r3, #1
 c10019c:	e50b3010 	str	r3, [fp, #-16]
	
	portG_read(7, &val);
 c1001a0:	e24b3011 	sub	r3, fp, #17
 c1001a4:	e3a00007 	mov	r0, #7
 c1001a8:	e1a01003 	mov	r1, r3
 c1001ac:	eb00017b 	bl	c1007a0 <portG_read>
	if(val == LOW) buttons |= BUT2;
 c1001b0:	e55b3011 	ldrb	r3, [fp, #-17]	; 0xffffffef
 c1001b4:	e3530000 	cmp	r3, #0
 c1001b8:	1a000002 	bne	c1001c8 <read_button+0x68>
 c1001bc:	e51b3010 	ldr	r3, [fp, #-16]
 c1001c0:	e3833002 	orr	r3, r3, #2
 c1001c4:	e50b3010 	str	r3, [fp, #-16]

	return buttons;
 c1001c8:	e51b3010 	ldr	r3, [fp, #-16]
}
 c1001cc:	e1a00003 	mov	r0, r3
 c1001d0:	e24bd00c 	sub	sp, fp, #12
 c1001d4:	e89d6800 	ldm	sp, {fp, sp, lr}
 c1001d8:	e12fff1e 	bx	lr

0c1001dc <portB_conf>:
#include "44b.h"
#include "gpio.h"

/* Port B interface implementation */

int portB_conf(int pin, enum port_mode mode) {
 c1001dc:	e1a0c00d 	mov	ip, sp
 c1001e0:	e92dd800 	push	{fp, ip, lr, pc}
 c1001e4:	e24cb004 	sub	fp, ip, #4
 c1001e8:	e24dd010 	sub	sp, sp, #16
 c1001ec:	e50b0018 	str	r0, [fp, #-24]	; 0xffffffe8
 c1001f0:	e1a03001 	mov	r3, r1
 c1001f4:	e54b3019 	strb	r3, [fp, #-25]	; 0xffffffe7
	int ret = 0;
 c1001f8:	e3a03000 	mov	r3, #0
 c1001fc:	e50b3010 	str	r3, [fp, #-16]
	if (pin < 0 || pin > 10)
 c100200:	e51b3018 	ldr	r3, [fp, #-24]	; 0xffffffe8
 c100204:	e3530000 	cmp	r3, #0
 c100208:	ba000002 	blt	c100218 <portB_conf+0x3c>
 c10020c:	e51b3018 	ldr	r3, [fp, #-24]	; 0xffffffe8
 c100210:	e353000a 	cmp	r3, #10
 c100214:	da000001 	ble	c100220 <portB_conf+0x44>
		return -1; // indica error
 c100218:	e3e03000 	mvn	r3, #0
 c10021c:	ea00001b 	b	c100290 <portB_conf+0xb4>

	if (mode == SIGOUT)
 c100220:	e55b3019 	ldrb	r3, [fp, #-25]	; 0xffffffe7
 c100224:	e3530002 	cmp	r3, #2
 c100228:	1a000008 	bne	c100250 <portB_conf+0x74>
		// COMPLETAR: poner en rPCONB el bit indicado por pin a 1 para que por
		// dicho pin en el puerto B salga la se√É¬±al correspondiente del
		// controlador de memoria
		rPCONB |= (0x1 << pin);
 c10022c:	e59f306c 	ldr	r3, [pc, #108]	; c1002a0 <portB_conf+0xc4>
 c100230:	e59f2068 	ldr	r2, [pc, #104]	; c1002a0 <portB_conf+0xc4>
 c100234:	e5921000 	ldr	r1, [r2]
 c100238:	e3a00001 	mov	r0, #1
 c10023c:	e51b2018 	ldr	r2, [fp, #-24]	; 0xffffffe8
 c100240:	e1a02210 	lsl	r2, r0, r2
 c100244:	e1812002 	orr	r2, r1, r2
 c100248:	e5832000 	str	r2, [r3]
 c10024c:	ea00000e 	b	c10028c <portB_conf+0xb0>

	else if (mode == OUTPUT)
 c100250:	e55b3019 	ldrb	r3, [fp, #-25]	; 0xffffffe7
 c100254:	e3530001 	cmp	r3, #1
 c100258:	1a000009 	bne	c100284 <portB_conf+0xa8>
		// COMPLETAR: poner en rPCONB el bit indicado por pin a 0 para que dicho
		// pin sea un pin de salida
		rPCONB &=~(0x1 <<pin);
 c10025c:	e59f303c 	ldr	r3, [pc, #60]	; c1002a0 <portB_conf+0xc4>
 c100260:	e59f2038 	ldr	r2, [pc, #56]	; c1002a0 <portB_conf+0xc4>
 c100264:	e5921000 	ldr	r1, [r2]
 c100268:	e3a00001 	mov	r0, #1
 c10026c:	e51b2018 	ldr	r2, [fp, #-24]	; 0xffffffe8
 c100270:	e1a02210 	lsl	r2, r0, r2
 c100274:	e1e02002 	mvn	r2, r2
 c100278:	e0012002 	and	r2, r1, r2
 c10027c:	e5832000 	str	r2, [r3]
 c100280:	ea000001 	b	c10028c <portB_conf+0xb0>
	else
		ret = -1; // indica error
 c100284:	e3e03000 	mvn	r3, #0
 c100288:	e50b3010 	str	r3, [fp, #-16]

	return ret;
 c10028c:	e51b3010 	ldr	r3, [fp, #-16]
}
 c100290:	e1a00003 	mov	r0, r3
 c100294:	e24bd00c 	sub	sp, fp, #12
 c100298:	e89d6800 	ldm	sp, {fp, sp, lr}
 c10029c:	e12fff1e 	bx	lr
 c1002a0:	01d20008 	.word	0x01d20008

0c1002a4 <portB_write>:

int portB_write(int pin, enum digital val)
{
 c1002a4:	e1a0c00d 	mov	ip, sp
 c1002a8:	e92dd800 	push	{fp, ip, lr, pc}
 c1002ac:	e24cb004 	sub	fp, ip, #4
 c1002b0:	e24dd008 	sub	sp, sp, #8
 c1002b4:	e50b0010 	str	r0, [fp, #-16]
 c1002b8:	e1a03001 	mov	r3, r1
 c1002bc:	e54b3011 	strb	r3, [fp, #-17]	; 0xffffffef
	if (pin < 0 || pin > 10)
 c1002c0:	e51b3010 	ldr	r3, [fp, #-16]
 c1002c4:	e3530000 	cmp	r3, #0
 c1002c8:	ba000002 	blt	c1002d8 <portB_write+0x34>
 c1002cc:	e51b3010 	ldr	r3, [fp, #-16]
 c1002d0:	e353000a 	cmp	r3, #10
 c1002d4:	da000001 	ble	c1002e0 <portB_write+0x3c>
		return -1; // indica error
 c1002d8:	e3e03000 	mvn	r3, #0
 c1002dc:	ea00001a 	b	c10034c <portB_write+0xa8>

	if (val < 0 || val > 1)
 c1002e0:	e55b3011 	ldrb	r3, [fp, #-17]	; 0xffffffef
 c1002e4:	e3530001 	cmp	r3, #1
 c1002e8:	9a000001 	bls	c1002f4 <portB_write+0x50>
		return -1; // indica error
 c1002ec:	e3e03000 	mvn	r3, #0
 c1002f0:	ea000015 	b	c10034c <portB_write+0xa8>

	if (val)
 c1002f4:	e55b3011 	ldrb	r3, [fp, #-17]	; 0xffffffef
 c1002f8:	e3530000 	cmp	r3, #0
 c1002fc:	0a000008 	beq	c100324 <portB_write+0x80>
		// COMPLETAR: poner en rPDATB el bit indicado por pin a 1
		rPDATB |= (0x1 << pin);
 c100300:	e59f3054 	ldr	r3, [pc, #84]	; c10035c <portB_write+0xb8>
 c100304:	e59f2050 	ldr	r2, [pc, #80]	; c10035c <portB_write+0xb8>
 c100308:	e5921000 	ldr	r1, [r2]
 c10030c:	e3a00001 	mov	r0, #1
 c100310:	e51b2010 	ldr	r2, [fp, #-16]
 c100314:	e1a02210 	lsl	r2, r0, r2
 c100318:	e1812002 	orr	r2, r1, r2
 c10031c:	e5832000 	str	r2, [r3]
 c100320:	ea000008 	b	c100348 <portB_write+0xa4>
	else
		// COMPLETAR: poner en rPDATB el bit indicado por pin a 0
		rPDATB &=~ (0x1 << pin);
 c100324:	e59f3030 	ldr	r3, [pc, #48]	; c10035c <portB_write+0xb8>
 c100328:	e59f202c 	ldr	r2, [pc, #44]	; c10035c <portB_write+0xb8>
 c10032c:	e5921000 	ldr	r1, [r2]
 c100330:	e3a00001 	mov	r0, #1
 c100334:	e51b2010 	ldr	r2, [fp, #-16]
 c100338:	e1a02210 	lsl	r2, r0, r2
 c10033c:	e1e02002 	mvn	r2, r2
 c100340:	e0012002 	and	r2, r1, r2
 c100344:	e5832000 	str	r2, [r3]

	return 0;
 c100348:	e3a03000 	mov	r3, #0
}
 c10034c:	e1a00003 	mov	r0, r3
 c100350:	e24bd00c 	sub	sp, fp, #12
 c100354:	e89d6800 	ldm	sp, {fp, sp, lr}
 c100358:	e12fff1e 	bx	lr
 c10035c:	01d2000c 	.word	0x01d2000c

0c100360 <portG_conf>:

/* Port G interface implementation */

int portG_conf(int pin, enum port_mode mode)
{
 c100360:	e1a0c00d 	mov	ip, sp
 c100364:	e92dd800 	push	{fp, ip, lr, pc}
 c100368:	e24cb004 	sub	fp, ip, #4
 c10036c:	e24dd010 	sub	sp, sp, #16
 c100370:	e50b0018 	str	r0, [fp, #-24]	; 0xffffffe8
 c100374:	e1a03001 	mov	r3, r1
 c100378:	e54b3019 	strb	r3, [fp, #-25]	; 0xffffffe7
	int pos  = pin*2;
 c10037c:	e51b3018 	ldr	r3, [fp, #-24]	; 0xffffffe8
 c100380:	e1a03083 	lsl	r3, r3, #1
 c100384:	e50b3010 	str	r3, [fp, #-16]

	if (pin < 0 || pin > 7)
 c100388:	e51b3018 	ldr	r3, [fp, #-24]	; 0xffffffe8
 c10038c:	e3530000 	cmp	r3, #0
 c100390:	ba000002 	blt	c1003a0 <portG_conf+0x40>
 c100394:	e51b3018 	ldr	r3, [fp, #-24]	; 0xffffffe8
 c100398:	e3530007 	cmp	r3, #7
 c10039c:	da000001 	ble	c1003a8 <portG_conf+0x48>
		return -1; // indica error
 c1003a0:	e3e03000 	mvn	r3, #0
 c1003a4:	ea000041 	b	c1004b0 <portG_conf+0x150>

	switch (mode) {
 c1003a8:	e55b3019 	ldrb	r3, [fp, #-25]	; 0xffffffe7
 c1003ac:	e3530003 	cmp	r3, #3
 c1003b0:	979ff103 	ldrls	pc, [pc, r3, lsl #2]
 c1003b4:	ea00003a 	b	c1004a4 <portG_conf+0x144>
 c1003b8:	0c1003c8 	.word	0x0c1003c8
 c1003bc:	0c1003f0 	.word	0x0c1003f0
 c1003c0:	0c100438 	.word	0x0c100438
 c1003c4:	0c100480 	.word	0x0c100480
		case INPUT:
			// COMPLETAR: poner en rPCONG 00 a partir de la posici√É¬≥n pos para
			// configurar como pin de entrada el pin indicado por el par√É¬°metro pin
			rPCONG &=~ (0x3 << pos);
 c1003c8:	e59f30f0 	ldr	r3, [pc, #240]	; c1004c0 <portG_conf+0x160>
 c1003cc:	e59f20ec 	ldr	r2, [pc, #236]	; c1004c0 <portG_conf+0x160>
 c1003d0:	e5921000 	ldr	r1, [r2]
 c1003d4:	e3a00003 	mov	r0, #3
 c1003d8:	e51b2010 	ldr	r2, [fp, #-16]
 c1003dc:	e1a02210 	lsl	r2, r0, r2
 c1003e0:	e1e02002 	mvn	r2, r2
 c1003e4:	e0012002 	and	r2, r1, r2
 c1003e8:	e5832000 	str	r2, [r3]

			break;
 c1003ec:	ea00002e 	b	c1004ac <portG_conf+0x14c>
		case OUTPUT:
			// COMPLETAR: poner en rPCONG 01 a partir de la posici√É¬≥n pos para
			// configurar como pin de salida el pin indicado por el par√É¬°metro pin
			rPCONG &=~ (0x3 << pos);
 c1003f0:	e59f30c8 	ldr	r3, [pc, #200]	; c1004c0 <portG_conf+0x160>
 c1003f4:	e59f20c4 	ldr	r2, [pc, #196]	; c1004c0 <portG_conf+0x160>
 c1003f8:	e5921000 	ldr	r1, [r2]
 c1003fc:	e3a00003 	mov	r0, #3
 c100400:	e51b2010 	ldr	r2, [fp, #-16]
 c100404:	e1a02210 	lsl	r2, r0, r2
 c100408:	e1e02002 	mvn	r2, r2
 c10040c:	e0012002 	and	r2, r1, r2
 c100410:	e5832000 	str	r2, [r3]
			rPCONG |= (0x1 << pos);
 c100414:	e59f30a4 	ldr	r3, [pc, #164]	; c1004c0 <portG_conf+0x160>
 c100418:	e59f20a0 	ldr	r2, [pc, #160]	; c1004c0 <portG_conf+0x160>
 c10041c:	e5921000 	ldr	r1, [r2]
 c100420:	e3a00001 	mov	r0, #1
 c100424:	e51b2010 	ldr	r2, [fp, #-16]
 c100428:	e1a02210 	lsl	r2, r0, r2
 c10042c:	e1812002 	orr	r2, r1, r2
 c100430:	e5832000 	str	r2, [r3]

			break;
 c100434:	ea00001c 	b	c1004ac <portG_conf+0x14c>
		case SIGOUT:
			// COMPLETAR: poner en rPCONG 10 a partir de la posici√É¬≥n pos para
			// que salga la se√É¬±al interna correspondiente por el pin indicado
			// por el par√É¬°metro pin
			rPCONG |= (0x3 << pos);
 c100438:	e59f3080 	ldr	r3, [pc, #128]	; c1004c0 <portG_conf+0x160>
 c10043c:	e59f207c 	ldr	r2, [pc, #124]	; c1004c0 <portG_conf+0x160>
 c100440:	e5921000 	ldr	r1, [r2]
 c100444:	e3a00003 	mov	r0, #3
 c100448:	e51b2010 	ldr	r2, [fp, #-16]
 c10044c:	e1a02210 	lsl	r2, r0, r2
 c100450:	e1812002 	orr	r2, r1, r2
 c100454:	e5832000 	str	r2, [r3]
			rPCONG &=~ (0x1 << pos);
 c100458:	e59f3060 	ldr	r3, [pc, #96]	; c1004c0 <portG_conf+0x160>
 c10045c:	e59f205c 	ldr	r2, [pc, #92]	; c1004c0 <portG_conf+0x160>
 c100460:	e5921000 	ldr	r1, [r2]
 c100464:	e3a00001 	mov	r0, #1
 c100468:	e51b2010 	ldr	r2, [fp, #-16]
 c10046c:	e1a02210 	lsl	r2, r0, r2
 c100470:	e1e02002 	mvn	r2, r2
 c100474:	e0012002 	and	r2, r1, r2
 c100478:	e5832000 	str	r2, [r3]

			break;
 c10047c:	ea00000a 	b	c1004ac <portG_conf+0x14c>
		case EINT:
			// COMPLETAR: poner en rPCONG 11 a partir de la posici√É¬≥n pos para
			// habilitar la generaci√É¬≥n de interrupciones externas por el pin
			// indicado por el par√É¬°metro pin
			rPCONG |= (0x3 << pos);
 c100480:	e59f3038 	ldr	r3, [pc, #56]	; c1004c0 <portG_conf+0x160>
 c100484:	e59f2034 	ldr	r2, [pc, #52]	; c1004c0 <portG_conf+0x160>
 c100488:	e5921000 	ldr	r1, [r2]
 c10048c:	e3a00003 	mov	r0, #3
 c100490:	e51b2010 	ldr	r2, [fp, #-16]
 c100494:	e1a02210 	lsl	r2, r0, r2
 c100498:	e1812002 	orr	r2, r1, r2
 c10049c:	e5832000 	str	r2, [r3]
			break;
 c1004a0:	ea000001 	b	c1004ac <portG_conf+0x14c>
		default:
			return -1;
 c1004a4:	e3e03000 	mvn	r3, #0
 c1004a8:	ea000000 	b	c1004b0 <portG_conf+0x150>
	}

	return 0;
 c1004ac:	e3a03000 	mov	r3, #0
}
 c1004b0:	e1a00003 	mov	r0, r3
 c1004b4:	e24bd00c 	sub	sp, fp, #12
 c1004b8:	e89d6800 	ldm	sp, {fp, sp, lr}
 c1004bc:	e12fff1e 	bx	lr
 c1004c0:	01d20040 	.word	0x01d20040

0c1004c4 <portG_eint_trig>:

int portG_eint_trig(int pin, enum trigger trig) {
 c1004c4:	e1a0c00d 	mov	ip, sp
 c1004c8:	e92dd800 	push	{fp, ip, lr, pc}
 c1004cc:	e24cb004 	sub	fp, ip, #4
 c1004d0:	e24dd010 	sub	sp, sp, #16
 c1004d4:	e50b0018 	str	r0, [fp, #-24]	; 0xffffffe8
 c1004d8:	e1a03001 	mov	r3, r1
 c1004dc:	e54b3019 	strb	r3, [fp, #-25]	; 0xffffffe7
	// A COMPLETAR EN LA SEGUNDA PARTE DE LA PR√ÉÔøΩCTICA
	int pos = pin*3;
 c1004e0:	e51b2018 	ldr	r2, [fp, #-24]	; 0xffffffe8
 c1004e4:	e1a03002 	mov	r3, r2
 c1004e8:	e1a03083 	lsl	r3, r3, #1
 c1004ec:	e0833002 	add	r3, r3, r2
 c1004f0:	e50b3010 	str	r3, [fp, #-16]

	if (pin < 0 || pin > 7)
 c1004f4:	e51b3018 	ldr	r3, [fp, #-24]	; 0xffffffe8
 c1004f8:	e3530000 	cmp	r3, #0
 c1004fc:	ba000002 	blt	c10050c <portG_eint_trig+0x48>
 c100500:	e51b3018 	ldr	r3, [fp, #-24]	; 0xffffffe8
 c100504:	e3530007 	cmp	r3, #7
 c100508:	da000001 	ble	c100514 <portG_eint_trig+0x50>
			return -1; // indica error
 c10050c:	e3e03000 	mvn	r3, #0
 c100510:	ea00005d 	b	c10068c <portG_eint_trig+0x1c8>

	switch(trig) {
 c100514:	e55b3019 	ldrb	r3, [fp, #-25]	; 0xffffffe7
 c100518:	e3530004 	cmp	r3, #4
 c10051c:	979ff103 	ldrls	pc, [pc, r3, lsl #2]
 c100520:	ea000056 	b	c100680 <portG_eint_trig+0x1bc>
 c100524:	0c100538 	.word	0x0c100538
 c100528:	0c100560 	.word	0x0c100560
 c10052c:	0c1005a8 	.word	0x0c1005a8
 c100530:	0c1005f0 	.word	0x0c1005f0
 c100534:	0c100638 	.word	0x0c100638
		case LLOW:
			rEXTINT &=~(0x7 << pos);
 c100538:	e59f315c 	ldr	r3, [pc, #348]	; c10069c <portG_eint_trig+0x1d8>
 c10053c:	e59f2158 	ldr	r2, [pc, #344]	; c10069c <portG_eint_trig+0x1d8>
 c100540:	e5921000 	ldr	r1, [r2]
 c100544:	e3a00007 	mov	r0, #7
 c100548:	e51b2010 	ldr	r2, [fp, #-16]
 c10054c:	e1a02210 	lsl	r2, r0, r2
 c100550:	e1e02002 	mvn	r2, r2
 c100554:	e0012002 	and	r2, r1, r2
 c100558:	e5832000 	str	r2, [r3]
			break;
 c10055c:	ea000049 	b	c100688 <portG_eint_trig+0x1c4>
		case LHIGH:
			rEXTINT &=~(0x7 << pos);
 c100560:	e59f3134 	ldr	r3, [pc, #308]	; c10069c <portG_eint_trig+0x1d8>
 c100564:	e59f2130 	ldr	r2, [pc, #304]	; c10069c <portG_eint_trig+0x1d8>
 c100568:	e5921000 	ldr	r1, [r2]
 c10056c:	e3a00007 	mov	r0, #7
 c100570:	e51b2010 	ldr	r2, [fp, #-16]
 c100574:	e1a02210 	lsl	r2, r0, r2
 c100578:	e1e02002 	mvn	r2, r2
 c10057c:	e0012002 	and	r2, r1, r2
 c100580:	e5832000 	str	r2, [r3]
			rEXTINT |= (0x1 << pos);
 c100584:	e59f3110 	ldr	r3, [pc, #272]	; c10069c <portG_eint_trig+0x1d8>
 c100588:	e59f210c 	ldr	r2, [pc, #268]	; c10069c <portG_eint_trig+0x1d8>
 c10058c:	e5921000 	ldr	r1, [r2]
 c100590:	e3a00001 	mov	r0, #1
 c100594:	e51b2010 	ldr	r2, [fp, #-16]
 c100598:	e1a02210 	lsl	r2, r0, r2
 c10059c:	e1812002 	orr	r2, r1, r2
 c1005a0:	e5832000 	str	r2, [r3]
			break;
 c1005a4:	ea000037 	b	c100688 <portG_eint_trig+0x1c4>
		case FALLING:
			rEXTINT &=~(0x7 << pos);
 c1005a8:	e59f30ec 	ldr	r3, [pc, #236]	; c10069c <portG_eint_trig+0x1d8>
 c1005ac:	e59f20e8 	ldr	r2, [pc, #232]	; c10069c <portG_eint_trig+0x1d8>
 c1005b0:	e5921000 	ldr	r1, [r2]
 c1005b4:	e3a00007 	mov	r0, #7
 c1005b8:	e51b2010 	ldr	r2, [fp, #-16]
 c1005bc:	e1a02210 	lsl	r2, r0, r2
 c1005c0:	e1e02002 	mvn	r2, r2
 c1005c4:	e0012002 	and	r2, r1, r2
 c1005c8:	e5832000 	str	r2, [r3]
			rEXTINT |= (0x2 << pos);
 c1005cc:	e59f30c8 	ldr	r3, [pc, #200]	; c10069c <portG_eint_trig+0x1d8>
 c1005d0:	e59f20c4 	ldr	r2, [pc, #196]	; c10069c <portG_eint_trig+0x1d8>
 c1005d4:	e5921000 	ldr	r1, [r2]
 c1005d8:	e3a00002 	mov	r0, #2
 c1005dc:	e51b2010 	ldr	r2, [fp, #-16]
 c1005e0:	e1a02210 	lsl	r2, r0, r2
 c1005e4:	e1812002 	orr	r2, r1, r2
 c1005e8:	e5832000 	str	r2, [r3]
			break;
 c1005ec:	ea000025 	b	c100688 <portG_eint_trig+0x1c4>
		case RISING:
			rEXTINT &=~(0x7 << pos);
 c1005f0:	e59f30a4 	ldr	r3, [pc, #164]	; c10069c <portG_eint_trig+0x1d8>
 c1005f4:	e59f20a0 	ldr	r2, [pc, #160]	; c10069c <portG_eint_trig+0x1d8>
 c1005f8:	e5921000 	ldr	r1, [r2]
 c1005fc:	e3a00007 	mov	r0, #7
 c100600:	e51b2010 	ldr	r2, [fp, #-16]
 c100604:	e1a02210 	lsl	r2, r0, r2
 c100608:	e1e02002 	mvn	r2, r2
 c10060c:	e0012002 	and	r2, r1, r2
 c100610:	e5832000 	str	r2, [r3]
			rEXTINT |= (0x4 << pos);
 c100614:	e59f3080 	ldr	r3, [pc, #128]	; c10069c <portG_eint_trig+0x1d8>
 c100618:	e59f207c 	ldr	r2, [pc, #124]	; c10069c <portG_eint_trig+0x1d8>
 c10061c:	e5921000 	ldr	r1, [r2]
 c100620:	e3a00004 	mov	r0, #4
 c100624:	e51b2010 	ldr	r2, [fp, #-16]
 c100628:	e1a02210 	lsl	r2, r0, r2
 c10062c:	e1812002 	orr	r2, r1, r2
 c100630:	e5832000 	str	r2, [r3]
			break;
 c100634:	ea000013 	b	c100688 <portG_eint_trig+0x1c4>
		case EDGE:
			rEXTINT &=~(0x7 << pos);
 c100638:	e59f305c 	ldr	r3, [pc, #92]	; c10069c <portG_eint_trig+0x1d8>
 c10063c:	e59f2058 	ldr	r2, [pc, #88]	; c10069c <portG_eint_trig+0x1d8>
 c100640:	e5921000 	ldr	r1, [r2]
 c100644:	e3a00007 	mov	r0, #7
 c100648:	e51b2010 	ldr	r2, [fp, #-16]
 c10064c:	e1a02210 	lsl	r2, r0, r2
 c100650:	e1e02002 	mvn	r2, r2
 c100654:	e0012002 	and	r2, r1, r2
 c100658:	e5832000 	str	r2, [r3]
			rEXTINT |= (0x6 << pos);
 c10065c:	e59f3038 	ldr	r3, [pc, #56]	; c10069c <portG_eint_trig+0x1d8>
 c100660:	e59f2034 	ldr	r2, [pc, #52]	; c10069c <portG_eint_trig+0x1d8>
 c100664:	e5921000 	ldr	r1, [r2]
 c100668:	e3a00006 	mov	r0, #6
 c10066c:	e51b2010 	ldr	r2, [fp, #-16]
 c100670:	e1a02210 	lsl	r2, r0, r2
 c100674:	e1812002 	orr	r2, r1, r2
 c100678:	e5832000 	str	r2, [r3]
			break;
 c10067c:	ea000001 	b	c100688 <portG_eint_trig+0x1c4>
		default:
			return -1;
 c100680:	e3e03000 	mvn	r3, #0
 c100684:	ea000000 	b	c10068c <portG_eint_trig+0x1c8>
	}

	return 0;
 c100688:	e3a03000 	mov	r3, #0
}
 c10068c:	e1a00003 	mov	r0, r3
 c100690:	e24bd00c 	sub	sp, fp, #12
 c100694:	e89d6800 	ldm	sp, {fp, sp, lr}
 c100698:	e12fff1e 	bx	lr
 c10069c:	01d20050 	.word	0x01d20050

0c1006a0 <portG_write>:

int portG_write(int pin, enum digital val)
{
 c1006a0:	e1a0c00d 	mov	ip, sp
 c1006a4:	e92dd800 	push	{fp, ip, lr, pc}
 c1006a8:	e24cb004 	sub	fp, ip, #4
 c1006ac:	e24dd010 	sub	sp, sp, #16
 c1006b0:	e50b0018 	str	r0, [fp, #-24]	; 0xffffffe8
 c1006b4:	e1a03001 	mov	r3, r1
 c1006b8:	e54b3019 	strb	r3, [fp, #-25]	; 0xffffffe7
	int pos = pin*2;
 c1006bc:	e51b3018 	ldr	r3, [fp, #-24]	; 0xffffffe8
 c1006c0:	e1a03083 	lsl	r3, r3, #1
 c1006c4:	e50b3010 	str	r3, [fp, #-16]

	if (pin < 0 || pin > 7)
 c1006c8:	e51b3018 	ldr	r3, [fp, #-24]	; 0xffffffe8
 c1006cc:	e3530000 	cmp	r3, #0
 c1006d0:	ba000002 	blt	c1006e0 <portG_write+0x40>
 c1006d4:	e51b3018 	ldr	r3, [fp, #-24]	; 0xffffffe8
 c1006d8:	e3530007 	cmp	r3, #7
 c1006dc:	da000001 	ble	c1006e8 <portG_write+0x48>
		return -1; // indica error
 c1006e0:	e3e03000 	mvn	r3, #0
 c1006e4:	ea000027 	b	c100788 <portG_write+0xe8>

	if (val < 0 || val > 1)
 c1006e8:	e55b3019 	ldrb	r3, [fp, #-25]	; 0xffffffe7
 c1006ec:	e3530001 	cmp	r3, #1
 c1006f0:	9a000001 	bls	c1006fc <portG_write+0x5c>
		return -1; // indica error
 c1006f4:	e3e03000 	mvn	r3, #0
 c1006f8:	ea000022 	b	c100788 <portG_write+0xe8>

	if ((rPCONG & (0x3 << pos)) != (0x1 << pos))
 c1006fc:	e59f3094 	ldr	r3, [pc, #148]	; c100798 <portG_write+0xf8>
 c100700:	e5932000 	ldr	r2, [r3]
 c100704:	e3a01003 	mov	r1, #3
 c100708:	e51b3010 	ldr	r3, [fp, #-16]
 c10070c:	e1a03311 	lsl	r3, r1, r3
 c100710:	e0022003 	and	r2, r2, r3
 c100714:	e3a01001 	mov	r1, #1
 c100718:	e51b3010 	ldr	r3, [fp, #-16]
 c10071c:	e1a03311 	lsl	r3, r1, r3
 c100720:	e1520003 	cmp	r2, r3
 c100724:	0a000001 	beq	c100730 <portG_write+0x90>
		return -1; // indica error
 c100728:	e3e03000 	mvn	r3, #0
 c10072c:	ea000015 	b	c100788 <portG_write+0xe8>

	if (val)
 c100730:	e55b3019 	ldrb	r3, [fp, #-25]	; 0xffffffe7
 c100734:	e3530000 	cmp	r3, #0
 c100738:	0a000008 	beq	c100760 <portG_write+0xc0>
		// COMPLETAR: poner en rPDATG el bit indicado por pin a 1
		rPDATG  |= (0x1 << pos);
 c10073c:	e59f3058 	ldr	r3, [pc, #88]	; c10079c <portG_write+0xfc>
 c100740:	e59f2054 	ldr	r2, [pc, #84]	; c10079c <portG_write+0xfc>
 c100744:	e5921000 	ldr	r1, [r2]
 c100748:	e3a00001 	mov	r0, #1
 c10074c:	e51b2010 	ldr	r2, [fp, #-16]
 c100750:	e1a02210 	lsl	r2, r0, r2
 c100754:	e1812002 	orr	r2, r1, r2
 c100758:	e5832000 	str	r2, [r3]
 c10075c:	ea000008 	b	c100784 <portG_write+0xe4>
	else
		// COMPLETAR: poner en rPDATG el bit indicado por pin a 0
		rPDATG &=~ (0x1 << pos);
 c100760:	e59f3034 	ldr	r3, [pc, #52]	; c10079c <portG_write+0xfc>
 c100764:	e59f2030 	ldr	r2, [pc, #48]	; c10079c <portG_write+0xfc>
 c100768:	e5921000 	ldr	r1, [r2]
 c10076c:	e3a00001 	mov	r0, #1
 c100770:	e51b2010 	ldr	r2, [fp, #-16]
 c100774:	e1a02210 	lsl	r2, r0, r2
 c100778:	e1e02002 	mvn	r2, r2
 c10077c:	e0012002 	and	r2, r1, r2
 c100780:	e5832000 	str	r2, [r3]
	return 0;
 c100784:	e3a03000 	mov	r3, #0
}
 c100788:	e1a00003 	mov	r0, r3
 c10078c:	e24bd00c 	sub	sp, fp, #12
 c100790:	e89d6800 	ldm	sp, {fp, sp, lr}
 c100794:	e12fff1e 	bx	lr
 c100798:	01d20040 	.word	0x01d20040
 c10079c:	01d20044 	.word	0x01d20044

0c1007a0 <portG_read>:

int portG_read(int pin, enum digital* val)
{
 c1007a0:	e1a0c00d 	mov	ip, sp
 c1007a4:	e92dd800 	push	{fp, ip, lr, pc}
 c1007a8:	e24cb004 	sub	fp, ip, #4
 c1007ac:	e24dd010 	sub	sp, sp, #16
 c1007b0:	e50b0018 	str	r0, [fp, #-24]	; 0xffffffe8
 c1007b4:	e50b101c 	str	r1, [fp, #-28]	; 0xffffffe4
	int pos = pin*2;
 c1007b8:	e51b3018 	ldr	r3, [fp, #-24]	; 0xffffffe8
 c1007bc:	e1a03083 	lsl	r3, r3, #1
 c1007c0:	e50b3010 	str	r3, [fp, #-16]

	if (pin < 0 || pin > 7)
 c1007c4:	e51b3018 	ldr	r3, [fp, #-24]	; 0xffffffe8
 c1007c8:	e3530000 	cmp	r3, #0
 c1007cc:	ba000002 	blt	c1007dc <portG_read+0x3c>
 c1007d0:	e51b3018 	ldr	r3, [fp, #-24]	; 0xffffffe8
 c1007d4:	e3530007 	cmp	r3, #7
 c1007d8:	da000001 	ble	c1007e4 <portG_read+0x44>
		return -1; // indica error
 c1007dc:	e3e03000 	mvn	r3, #0
 c1007e0:	ea000019 	b	c10084c <portG_read+0xac>

	if (rPCONG & (0x3 << pos))
 c1007e4:	e59f3070 	ldr	r3, [pc, #112]	; c10085c <portG_read+0xbc>
 c1007e8:	e5932000 	ldr	r2, [r3]
 c1007ec:	e3a01003 	mov	r1, #3
 c1007f0:	e51b3010 	ldr	r3, [fp, #-16]
 c1007f4:	e1a03311 	lsl	r3, r1, r3
 c1007f8:	e0023003 	and	r3, r2, r3
 c1007fc:	e3530000 	cmp	r3, #0
 c100800:	0a000001 	beq	c10080c <portG_read+0x6c>
		return -1; // indica error
 c100804:	e3e03000 	mvn	r3, #0
 c100808:	ea00000f 	b	c10084c <portG_read+0xac>

	if (rPDATG & (0x1 << pin)/*COMPLETAR: true si est√É¬° a 1 en rPDATG el pin indicado por el par√É¬°metro pin*/)
 c10080c:	e59f304c 	ldr	r3, [pc, #76]	; c100860 <portG_read+0xc0>
 c100810:	e5932000 	ldr	r2, [r3]
 c100814:	e3a01001 	mov	r1, #1
 c100818:	e51b3018 	ldr	r3, [fp, #-24]	; 0xffffffe8
 c10081c:	e1a03311 	lsl	r3, r1, r3
 c100820:	e0023003 	and	r3, r2, r3
 c100824:	e3530000 	cmp	r3, #0
 c100828:	0a000003 	beq	c10083c <portG_read+0x9c>
		*val = HIGH;
 c10082c:	e51b301c 	ldr	r3, [fp, #-28]	; 0xffffffe4
 c100830:	e3a02001 	mov	r2, #1
 c100834:	e5c32000 	strb	r2, [r3]
 c100838:	ea000002 	b	c100848 <portG_read+0xa8>
	else
		*val = LOW;
 c10083c:	e51b301c 	ldr	r3, [fp, #-28]	; 0xffffffe4
 c100840:	e3a02000 	mov	r2, #0
 c100844:	e5c32000 	strb	r2, [r3]

	return 0;
 c100848:	e3a03000 	mov	r3, #0
}
 c10084c:	e1a00003 	mov	r0, r3
 c100850:	e24bd00c 	sub	sp, fp, #12
 c100854:	e89d6800 	ldm	sp, {fp, sp, lr}
 c100858:	e12fff1e 	bx	lr
 c10085c:	01d20040 	.word	0x01d20040
 c100860:	01d20044 	.word	0x01d20044

0c100864 <portG_conf_pup>:

int portG_conf_pup(int pin, enum enable st)
{
 c100864:	e1a0c00d 	mov	ip, sp
 c100868:	e92dd800 	push	{fp, ip, lr, pc}
 c10086c:	e24cb004 	sub	fp, ip, #4
 c100870:	e24dd008 	sub	sp, sp, #8
 c100874:	e50b0010 	str	r0, [fp, #-16]
 c100878:	e1a03001 	mov	r3, r1
 c10087c:	e54b3011 	strb	r3, [fp, #-17]	; 0xffffffef
	if (pin < 0 || pin > 7)
 c100880:	e51b3010 	ldr	r3, [fp, #-16]
 c100884:	e3530000 	cmp	r3, #0
 c100888:	ba000002 	blt	c100898 <portG_conf_pup+0x34>
 c10088c:	e51b3010 	ldr	r3, [fp, #-16]
 c100890:	e3530007 	cmp	r3, #7
 c100894:	da000001 	ble	c1008a0 <portG_conf_pup+0x3c>
		return -1; // indica error
 c100898:	e3e03000 	mvn	r3, #0
 c10089c:	ea00001d 	b	c100918 <portG_conf_pup+0xb4>

	if (st != ENABLE && st != DISABLE)
 c1008a0:	e55b3011 	ldrb	r3, [fp, #-17]	; 0xffffffef
 c1008a4:	e3530001 	cmp	r3, #1
 c1008a8:	0a000004 	beq	c1008c0 <portG_conf_pup+0x5c>
 c1008ac:	e55b3011 	ldrb	r3, [fp, #-17]	; 0xffffffef
 c1008b0:	e3530000 	cmp	r3, #0
 c1008b4:	0a000001 	beq	c1008c0 <portG_conf_pup+0x5c>
		return -1; // indica error
 c1008b8:	e3e03000 	mvn	r3, #0
 c1008bc:	ea000015 	b	c100918 <portG_conf_pup+0xb4>

	if (st == ENABLE)
 c1008c0:	e55b3011 	ldrb	r3, [fp, #-17]	; 0xffffffef
 c1008c4:	e3530001 	cmp	r3, #1
 c1008c8:	1a000009 	bne	c1008f4 <portG_conf_pup+0x90>
		// COMPLETAR: poner el pin de rPUPG indicado por el parametro pin al valor adecuado,
		// para activar la resistencia de pull-up
		rPUPG &=~ (0x1 << pin);
 c1008cc:	e59f3054 	ldr	r3, [pc, #84]	; c100928 <portG_conf_pup+0xc4>
 c1008d0:	e59f2050 	ldr	r2, [pc, #80]	; c100928 <portG_conf_pup+0xc4>
 c1008d4:	e5921000 	ldr	r1, [r2]
 c1008d8:	e3a00001 	mov	r0, #1
 c1008dc:	e51b2010 	ldr	r2, [fp, #-16]
 c1008e0:	e1a02210 	lsl	r2, r0, r2
 c1008e4:	e1e02002 	mvn	r2, r2
 c1008e8:	e0012002 	and	r2, r1, r2
 c1008ec:	e5832000 	str	r2, [r3]
 c1008f0:	ea000007 	b	c100914 <portG_conf_pup+0xb0>

	else
		// COMPLETAR: poner el pin de rPUPG indicado por el parametro pin al valor adecuado,
		// para desactivar la resistencia de pull-up
		rPUPG |= (0x1 << pin);
 c1008f4:	e59f302c 	ldr	r3, [pc, #44]	; c100928 <portG_conf_pup+0xc4>
 c1008f8:	e59f2028 	ldr	r2, [pc, #40]	; c100928 <portG_conf_pup+0xc4>
 c1008fc:	e5921000 	ldr	r1, [r2]
 c100900:	e3a00001 	mov	r0, #1
 c100904:	e51b2010 	ldr	r2, [fp, #-16]
 c100908:	e1a02210 	lsl	r2, r0, r2
 c10090c:	e1812002 	orr	r2, r1, r2
 c100910:	e5832000 	str	r2, [r3]

	return 0;
 c100914:	e3a03000 	mov	r3, #0
}
 c100918:	e1a00003 	mov	r0, r3
 c10091c:	e24bd00c 	sub	sp, fp, #12
 c100920:	e89d6800 	ldm	sp, {fp, sp, lr}
 c100924:	e12fff1e 	bx	lr
 c100928:	01d20048 	.word	0x01d20048

0c10092c <start>:
	.equ rINTMSK,    0x1e0000c

start:

	/* Pasa a modo supervisor */
    mrs	r0, cpsr
 c10092c:	e10f0000 	mrs	r0, CPSR
    bic	r0, r0, #MODEMASK
 c100930:	e3c0001f 	bic	r0, r0, #31
    orr	r1, r0, #SVCMODE
 c100934:	e3801013 	orr	r1, r0, #19
    msr	cpsr_c, r1 
 c100938:	e121f001 	msr	CPSR_c, r1

	/* Enmascara interrupciones */
	ldr r0, =rINTMSK
 c10093c:	e59f0094 	ldr	r0, [pc, #148]	; c1009d8 <InitStacks+0x48>
	ldr r1, =0x1fffffff
 c100940:	e3e0120e 	mvn	r1, #-536870912	; 0xe0000000
    str r1, [r0]
 c100944:	e5801000 	str	r1, [r0]

	/* Habilita linea IRQ y FIQ del CPSR */
	mrs r0, cpsr
 c100948:	e10f0000 	mrs	r0, CPSR
	bic r0, r0, #0xC0
 c10094c:	e3c000c0 	bic	r0, r0, #192	; 0xc0
	msr cpsr_c, r0
 c100950:	e121f000 	msr	CPSR_c, r0
	
	/* Inicializaci√≥n de la secci√≥n bss a 0, est√°ndar C */
    ldr	    r3, =Image_ZI_Base
 c100954:	e59f3080 	ldr	r3, [pc, #128]	; c1009dc <InitStacks+0x4c>
	ldr	    r1, =Image_ZI_Limit	/* Top of zero init segment */
 c100958:	e59f1080 	ldr	r1, [pc, #128]	; c1009e0 <InitStacks+0x50>
    mov	    r2, #0
 c10095c:	e3a02000 	mov	r2, #0

0c100960 <L0>:
L0:
    cmp	    r3, r1	    		/* Zero init */
 c100960:	e1530001 	cmp	r3, r1
    strcc   r2, [r3], #4
 c100964:	34832004 	strcc	r2, [r3], #4
    bcc	    L0
 c100968:	3afffffc 	bcc	c100960 <L0>
	/****************************************************/

	/* Desde modo SVC inicializa los SP de todos los modos de ejecuciÔøΩn privilegiados */
    bl InitStacks
 c10096c:	eb000007 	bl	c100990 <InitStacks>
	
	/* Desde modo SVC cambia a modo USR e inicializa el SP_usr */
	mrs r0, cpsr
 c100970:	e10f0000 	mrs	r0, CPSR
	bic r0, r0, #MODEMASK
 c100974:	e3c0001f 	bic	r0, r0, #31
	orr r1, r0, #USRMODE  
 c100978:	e3801010 	orr	r1, r0, #16
	msr cpsr_c, r1
 c10097c:	e121f001 	msr	CPSR_c, r1
	ldr sp, =USRSTACK
 c100980:	e59fd05c 	ldr	sp, [pc, #92]	; c1009e4 <InitStacks+0x54>

    mov fp, #0
 c100984:	e3a0b000 	mov	fp, #0

    bl main
 c100988:	eb000155 	bl	c100ee4 <main>

0c10098c <End>:

End:
    B End
 c10098c:	eafffffe 	b	c10098c <End>

0c100990 <InitStacks>:

InitStacks:
	mrs r0, cpsr
 c100990:	e10f0000 	mrs	r0, CPSR
	bic r0, r0, #MODEMASK
 c100994:	e3c0001f 	bic	r0, r0, #31

	orr r1, r0, #UNDMODE  /* desde modo SVC cambia a modo UND e inicializa el SP_und */
 c100998:	e380101b 	orr	r1, r0, #27
	msr cpsr_c, r1    
 c10099c:	e121f001 	msr	CPSR_c, r1
	ldr sp, =UNDSTACK
 c1009a0:	e59fd040 	ldr	sp, [pc, #64]	; c1009e8 <InitStacks+0x58>

	orr r1, r0, #ABTMODE  /* desde modo UND cambia a modo ABT e inicializa el SP_abt */
 c1009a4:	e3801017 	orr	r1, r0, #23
	msr cpsr_c, r1 
 c1009a8:	e121f001 	msr	CPSR_c, r1
	ldr sp, =ABTSTACK
 c1009ac:	e59fd038 	ldr	sp, [pc, #56]	; c1009ec <InitStacks+0x5c>

	orr r1, r0, #IRQMODE  /* desde modo ABT cambia a modo IRQ e inicializa el SP_abt */
 c1009b0:	e3801012 	orr	r1, r0, #18
	msr cpsr_c, r1
 c1009b4:	e121f001 	msr	CPSR_c, r1
	ldr sp, =IRQSTACK
 c1009b8:	e59fd030 	ldr	sp, [pc, #48]	; c1009f0 <InitStacks+0x60>

	orr r1, r0, #FIQMODE  /* desde modo IRQ cambia a modo FIQ e inicializa el SP_fiq */
 c1009bc:	e3801011 	orr	r1, r0, #17
	msr cpsr_c, r1
 c1009c0:	e121f001 	msr	CPSR_c, r1
	ldr sp, =FIQSTACK
 c1009c4:	e59fd028 	ldr	sp, [pc, #40]	; c1009f4 <InitStacks+0x64>

	orr r1, r0, #SVCMODE  /* desde modo FIQ cambia a modo SVC e inicializa el SP_svc */
 c1009c8:	e3801013 	orr	r1, r0, #19
	msr cpsr_c, r1
 c1009cc:	e121f001 	msr	CPSR_c, r1
	ldr sp, =SVCSTACK
 c1009d0:	e59fd020 	ldr	sp, [pc, #32]	; c1009f8 <InitStacks+0x68>
	
    mov pc, lr
 c1009d4:	e1a0f00e 	mov	pc, lr
 c1009d8:	01e0000c 	.word	0x01e0000c
 c1009dc:	0c100078 	.word	0x0c100078
 c1009e0:	0c100084 	.word	0x0c100084
 c1009e4:	0c7ff000 	.word	0x0c7ff000
 c1009e8:	0c7ff200 	.word	0x0c7ff200
 c1009ec:	0c7ff300 	.word	0x0c7ff300
 c1009f0:	0c7ff400 	.word	0x0c7ff400
 c1009f4:	0c7ff500 	.word	0x0c7ff500
 c1009f8:	0c7ff100 	.word	0x0c7ff100

0c1009fc <leds_init>:
// sÔøΩlo tienen sentido los dos bites menos
// significativos, cada uno para un led
// 1 encendido y 0 apagado
static unsigned int status = 0;

void leds_init( void ) {
 c1009fc:	e1a0c00d 	mov	ip, sp
 c100a00:	e92dd800 	push	{fp, ip, lr, pc}
 c100a04:	e24cb004 	sub	fp, ip, #4
	//COMPLETAR usando el interfaz del puerto B definido en gpio.h
	// hay que configurar los pines 9 y 10 como pines de salida
	portB_conf(BIT_LED1, OUTPUT);
 c100a08:	e3a00009 	mov	r0, #9
 c100a0c:	e3a01001 	mov	r1, #1
 c100a10:	ebfffdf1 	bl	c1001dc <portB_conf>
	portB_conf(BIT_LED2, OUTPUT);
 c100a14:	e3a0000a 	mov	r0, #10
 c100a18:	e3a01001 	mov	r1, #1
 c100a1c:	ebfffdee 	bl	c1001dc <portB_conf>
	leds_display( status );
 c100a20:	e59f3014 	ldr	r3, [pc, #20]	; c100a3c <leds_init+0x40>
 c100a24:	e5933000 	ldr	r3, [r3]
 c100a28:	e1a00003 	mov	r0, r3
 c100a2c:	eb000073 	bl	c100c00 <leds_display>
}
 c100a30:	e24bd00c 	sub	sp, fp, #12
 c100a34:	e89d6800 	ldm	sp, {fp, sp, lr}
 c100a38:	e12fff1e 	bx	lr
 c100a3c:	0c100078 	.word	0x0c100078

0c100a40 <led1_on>:

void led1_on( void )
{
 c100a40:	e1a0c00d 	mov	ip, sp
 c100a44:	e92dd800 	push	{fp, ip, lr, pc}
 c100a48:	e24cb004 	sub	fp, ip, #4
	status |=  LED1;
 c100a4c:	e59f3028 	ldr	r3, [pc, #40]	; c100a7c <led1_on+0x3c>
 c100a50:	e5933000 	ldr	r3, [r3]
 c100a54:	e3832001 	orr	r2, r3, #1
 c100a58:	e59f301c 	ldr	r3, [pc, #28]	; c100a7c <led1_on+0x3c>
 c100a5c:	e5832000 	str	r2, [r3]
	leds_display( status );
 c100a60:	e59f3014 	ldr	r3, [pc, #20]	; c100a7c <led1_on+0x3c>
 c100a64:	e5933000 	ldr	r3, [r3]
 c100a68:	e1a00003 	mov	r0, r3
 c100a6c:	eb000063 	bl	c100c00 <leds_display>
}
 c100a70:	e24bd00c 	sub	sp, fp, #12
 c100a74:	e89d6800 	ldm	sp, {fp, sp, lr}
 c100a78:	e12fff1e 	bx	lr
 c100a7c:	0c100078 	.word	0x0c100078

0c100a80 <led1_off>:

void led1_off( void )
{
 c100a80:	e1a0c00d 	mov	ip, sp
 c100a84:	e92dd800 	push	{fp, ip, lr, pc}
 c100a88:	e24cb004 	sub	fp, ip, #4
	status &=  ~LED1;
 c100a8c:	e59f3028 	ldr	r3, [pc, #40]	; c100abc <led1_off+0x3c>
 c100a90:	e5933000 	ldr	r3, [r3]
 c100a94:	e3c32001 	bic	r2, r3, #1
 c100a98:	e59f301c 	ldr	r3, [pc, #28]	; c100abc <led1_off+0x3c>
 c100a9c:	e5832000 	str	r2, [r3]
	leds_display( status );
 c100aa0:	e59f3014 	ldr	r3, [pc, #20]	; c100abc <led1_off+0x3c>
 c100aa4:	e5933000 	ldr	r3, [r3]
 c100aa8:	e1a00003 	mov	r0, r3
 c100aac:	eb000053 	bl	c100c00 <leds_display>
}
 c100ab0:	e24bd00c 	sub	sp, fp, #12
 c100ab4:	e89d6800 	ldm	sp, {fp, sp, lr}
 c100ab8:	e12fff1e 	bx	lr
 c100abc:	0c100078 	.word	0x0c100078

0c100ac0 <led2_on>:

void led2_on( void )
{
 c100ac0:	e1a0c00d 	mov	ip, sp
 c100ac4:	e92dd800 	push	{fp, ip, lr, pc}
 c100ac8:	e24cb004 	sub	fp, ip, #4
	status |=  LED2;
 c100acc:	e59f3028 	ldr	r3, [pc, #40]	; c100afc <led2_on+0x3c>
 c100ad0:	e5933000 	ldr	r3, [r3]
 c100ad4:	e3832002 	orr	r2, r3, #2
 c100ad8:	e59f301c 	ldr	r3, [pc, #28]	; c100afc <led2_on+0x3c>
 c100adc:	e5832000 	str	r2, [r3]
	leds_display( status );
 c100ae0:	e59f3014 	ldr	r3, [pc, #20]	; c100afc <led2_on+0x3c>
 c100ae4:	e5933000 	ldr	r3, [r3]
 c100ae8:	e1a00003 	mov	r0, r3
 c100aec:	eb000043 	bl	c100c00 <leds_display>
}
 c100af0:	e24bd00c 	sub	sp, fp, #12
 c100af4:	e89d6800 	ldm	sp, {fp, sp, lr}
 c100af8:	e12fff1e 	bx	lr
 c100afc:	0c100078 	.word	0x0c100078

0c100b00 <led2_off>:

void led2_off( void )
{
 c100b00:	e1a0c00d 	mov	ip, sp
 c100b04:	e92dd800 	push	{fp, ip, lr, pc}
 c100b08:	e24cb004 	sub	fp, ip, #4
	status &=  ~LED2;
 c100b0c:	e59f3028 	ldr	r3, [pc, #40]	; c100b3c <led2_off+0x3c>
 c100b10:	e5933000 	ldr	r3, [r3]
 c100b14:	e3c32002 	bic	r2, r3, #2
 c100b18:	e59f301c 	ldr	r3, [pc, #28]	; c100b3c <led2_off+0x3c>
 c100b1c:	e5832000 	str	r2, [r3]
	leds_display( status );
 c100b20:	e59f3014 	ldr	r3, [pc, #20]	; c100b3c <led2_off+0x3c>
 c100b24:	e5933000 	ldr	r3, [r3]
 c100b28:	e1a00003 	mov	r0, r3
 c100b2c:	eb000033 	bl	c100c00 <leds_display>
}
 c100b30:	e24bd00c 	sub	sp, fp, #12
 c100b34:	e89d6800 	ldm	sp, {fp, sp, lr}
 c100b38:	e12fff1e 	bx	lr
 c100b3c:	0c100078 	.word	0x0c100078

0c100b40 <led1_switch>:

void led1_switch( void )
{
 c100b40:	e1a0c00d 	mov	ip, sp
 c100b44:	e92dd800 	push	{fp, ip, lr, pc}
 c100b48:	e24cb004 	sub	fp, ip, #4
	status ^= LED1;
 c100b4c:	e59f3028 	ldr	r3, [pc, #40]	; c100b7c <led1_switch+0x3c>
 c100b50:	e5933000 	ldr	r3, [r3]
 c100b54:	e2232001 	eor	r2, r3, #1
 c100b58:	e59f301c 	ldr	r3, [pc, #28]	; c100b7c <led1_switch+0x3c>
 c100b5c:	e5832000 	str	r2, [r3]
	leds_display( status );
 c100b60:	e59f3014 	ldr	r3, [pc, #20]	; c100b7c <led1_switch+0x3c>
 c100b64:	e5933000 	ldr	r3, [r3]
 c100b68:	e1a00003 	mov	r0, r3
 c100b6c:	eb000023 	bl	c100c00 <leds_display>
}
 c100b70:	e24bd00c 	sub	sp, fp, #12
 c100b74:	e89d6800 	ldm	sp, {fp, sp, lr}
 c100b78:	e12fff1e 	bx	lr
 c100b7c:	0c100078 	.word	0x0c100078

0c100b80 <led2_switch>:

void led2_switch( void )
{
 c100b80:	e1a0c00d 	mov	ip, sp
 c100b84:	e92dd800 	push	{fp, ip, lr, pc}
 c100b88:	e24cb004 	sub	fp, ip, #4
	status ^= LED2;
 c100b8c:	e59f3028 	ldr	r3, [pc, #40]	; c100bbc <led2_switch+0x3c>
 c100b90:	e5933000 	ldr	r3, [r3]
 c100b94:	e2232002 	eor	r2, r3, #2
 c100b98:	e59f301c 	ldr	r3, [pc, #28]	; c100bbc <led2_switch+0x3c>
 c100b9c:	e5832000 	str	r2, [r3]
	leds_display( status );
 c100ba0:	e59f3014 	ldr	r3, [pc, #20]	; c100bbc <led2_switch+0x3c>
 c100ba4:	e5933000 	ldr	r3, [r3]
 c100ba8:	e1a00003 	mov	r0, r3
 c100bac:	eb000013 	bl	c100c00 <leds_display>
}
 c100bb0:	e24bd00c 	sub	sp, fp, #12
 c100bb4:	e89d6800 	ldm	sp, {fp, sp, lr}
 c100bb8:	e12fff1e 	bx	lr
 c100bbc:	0c100078 	.word	0x0c100078

0c100bc0 <leds_switch>:

void leds_switch( void ){
 c100bc0:	e1a0c00d 	mov	ip, sp
 c100bc4:	e92dd800 	push	{fp, ip, lr, pc}
 c100bc8:	e24cb004 	sub	fp, ip, #4
	status ^= (LED1 | LED2);
 c100bcc:	e59f3028 	ldr	r3, [pc, #40]	; c100bfc <leds_switch+0x3c>
 c100bd0:	e5933000 	ldr	r3, [r3]
 c100bd4:	e2232003 	eor	r2, r3, #3
 c100bd8:	e59f301c 	ldr	r3, [pc, #28]	; c100bfc <leds_switch+0x3c>
 c100bdc:	e5832000 	str	r2, [r3]
	leds_display( status );
 c100be0:	e59f3014 	ldr	r3, [pc, #20]	; c100bfc <leds_switch+0x3c>
 c100be4:	e5933000 	ldr	r3, [r3]
 c100be8:	e1a00003 	mov	r0, r3
 c100bec:	eb000003 	bl	c100c00 <leds_display>
}
 c100bf0:	e24bd00c 	sub	sp, fp, #12
 c100bf4:	e89d6800 	ldm	sp, {fp, sp, lr}
 c100bf8:	e12fff1e 	bx	lr
 c100bfc:	0c100078 	.word	0x0c100078

0c100c00 <leds_display>:

void leds_display( unsigned int leds_status ) {
 c100c00:	e1a0c00d 	mov	ip, sp
 c100c04:	e92dd800 	push	{fp, ip, lr, pc}
 c100c08:	e24cb004 	sub	fp, ip, #4
 c100c0c:	e24dd008 	sub	sp, sp, #8
 c100c10:	e50b0010 	str	r0, [fp, #-16]
	status = leds_status;
 c100c14:	e59f3074 	ldr	r3, [pc, #116]	; c100c90 <leds_display+0x90>
 c100c18:	e51b2010 	ldr	r2, [fp, #-16]
 c100c1c:	e5832000 	str	r2, [r3]
	
	// LED 1
	if( status & LED1 )
 c100c20:	e59f3068 	ldr	r3, [pc, #104]	; c100c90 <leds_display+0x90>
 c100c24:	e5933000 	ldr	r3, [r3]
 c100c28:	e2033001 	and	r3, r3, #1
 c100c2c:	e20330ff 	and	r3, r3, #255	; 0xff
 c100c30:	e3530000 	cmp	r3, #0
 c100c34:	0a000003 	beq	c100c48 <leds_display+0x48>
		//COMPLETAR usando el interfaz del puerto B definido en gpio.h
		//hay que poner a nivel bajo el bit correspondiente al led 1
		portB_write(BIT_LED1, LOW);
 c100c38:	e3a00009 	mov	r0, #9
 c100c3c:	e3a01000 	mov	r1, #0
 c100c40:	ebfffd97 	bl	c1002a4 <portB_write>
 c100c44:	ea000002 	b	c100c54 <leds_display+0x54>
	else
		//COMPLETAR usando el interfaz del puerto B definido en gpio.h
		//hay que poner a nivel alto el bit correspondiente al led 1
		portB_write(BIT_LED1, HIGH);
 c100c48:	e3a00009 	mov	r0, #9
 c100c4c:	e3a01001 	mov	r1, #1
 c100c50:	ebfffd93 	bl	c1002a4 <portB_write>
	// LED 2
	if( status & LED2 )
 c100c54:	e59f3034 	ldr	r3, [pc, #52]	; c100c90 <leds_display+0x90>
 c100c58:	e5933000 	ldr	r3, [r3]
 c100c5c:	e2033002 	and	r3, r3, #2
 c100c60:	e3530000 	cmp	r3, #0
 c100c64:	0a000003 	beq	c100c78 <leds_display+0x78>
		//COMPLETAR usando el interfaz del puerto B definido en gpio.h
		//hay que poner a nivel bajo el bit correspondiente al led 2
		portB_write(BIT_LED2, LOW);
 c100c68:	e3a0000a 	mov	r0, #10
 c100c6c:	e3a01000 	mov	r1, #0
 c100c70:	ebfffd8b 	bl	c1002a4 <portB_write>
 c100c74:	ea000002 	b	c100c84 <leds_display+0x84>
	else
		//COMPLETAR usando el interfaz del puerto B definido en gpio.h
		//hay que poner a nivel alto el bit correspondiente al led 2
		portB_write(BIT_LED2, HIGH);
 c100c78:	e3a0000a 	mov	r0, #10
 c100c7c:	e3a01001 	mov	r1, #1
 c100c80:	ebfffd87 	bl	c1002a4 <portB_write>
}
 c100c84:	e24bd00c 	sub	sp, fp, #12
 c100c88:	e89d6800 	ldm	sp, {fp, sp, lr}
 c100c8c:	e12fff1e 	bx	lr
 c100c90:	0c100078 	.word	0x0c100078

0c100c94 <setup>:

static int contBUT1 = 0;
static int contBUT2 = 0;

int setup(void)
{
 c100c94:	e1a0c00d 	mov	ip, sp
 c100c98:	e92dd800 	push	{fp, ip, lr, pc}
 c100c9c:	e24cb004 	sub	fp, ip, #4
	leds_init();
 c100ca0:	ebffff55 	bl	c1009fc <leds_init>
	D8Led_init();
 c100ca4:	ebfffcf6 	bl	c100084 <D8Led_init>
	D8Led_segment(RL.position);
 c100ca8:	e59f3054 	ldr	r3, [pc, #84]	; c100d04 <setup+0x70>
 c100cac:	e5933010 	ldr	r3, [r3, #16]
 c100cb0:	e1a00003 	mov	r0, r3
 c100cb4:	ebfffcfb 	bl	c1000a8 <D8Led_segment>
	//COMPLETAR: utilizando el interfaz para el puerto G definido en gpio.h hay
	//que configurar los pines 6 y 7 del puerto G como pines de entrada y
	//activar las correspondientes resistencias de pull-up
	
	/*******************************************/
	portG_conf(6, INPUT);
 c100cb8:	e3a00006 	mov	r0, #6
 c100cbc:	e3a01000 	mov	r1, #0
 c100cc0:	ebfffda6 	bl	c100360 <portG_conf>
	portG_conf(7, INPUT);
 c100cc4:	e3a00007 	mov	r0, #7
 c100cc8:	e3a01000 	mov	r1, #0
 c100ccc:	ebfffda3 	bl	c100360 <portG_conf>
	portG_conf_pup(6, ENABLE);
 c100cd0:	e3a00006 	mov	r0, #6
 c100cd4:	e3a01001 	mov	r1, #1
 c100cd8:	ebfffee1 	bl	c100864 <portG_conf_pup>
	portG_conf_pup(7, ENABLE);
 c100cdc:	e3a00007 	mov	r0, #7
 c100ce0:	e3a01001 	mov	r1, #1
 c100ce4:	ebfffede 	bl	c100864 <portG_conf_pup>

	Delay(0);
 c100ce8:	e3a00000 	mov	r0, #0
 c100cec:	eb000082 	bl	c100efc <Delay>
	return 0;
 c100cf0:	e3a03000 	mov	r3, #0
}
 c100cf4:	e1a00003 	mov	r0, r3
 c100cf8:	e24bd00c 	sub	sp, fp, #12
 c100cfc:	e89d6800 	ldm	sp, {fp, sp, lr}
 c100d00:	e12fff1e 	bx	lr
 c100d04:	0c100060 	.word	0x0c100060

0c100d08 <loop>:

int loop(void)
{
 c100d08:	e1a0c00d 	mov	ip, sp
 c100d0c:	e92dd800 	push	{fp, ip, lr, pc}
 c100d10:	e24cb004 	sub	fp, ip, #4
 c100d14:	e24dd008 	sub	sp, sp, #8
	unsigned int buttons = read_button();
 c100d18:	ebfffd10 	bl	c100160 <read_button>
 c100d1c:	e50b0010 	str	r0, [fp, #-16]

	if (buttons & BUT1) {
 c100d20:	e51b3010 	ldr	r3, [fp, #-16]
 c100d24:	e2033001 	and	r3, r3, #1
 c100d28:	e20330ff 	and	r3, r3, #255	; 0xff
 c100d2c:	e3530000 	cmp	r3, #0
 c100d30:	0a000018 	beq	c100d98 <loop+0x90>
		// COMPLETAR: utilizando la interfaz para los leds definida en leds.h
		// hay que apagar ambos leds
		// Tambi√©n hay que comutar la direcci√≥n del movimiento del led rotante
		// representado por el campo direction de la variable RL
		led1_off();
 c100d34:	ebffff51 	bl	c100a80 <led1_off>
		led2_off();
 c100d38:	ebffff70 	bl	c100b00 <led2_off>

		RL.direction = ~RL.direction;
 c100d3c:	e59f3190 	ldr	r3, [pc, #400]	; c100ed4 <loop+0x1cc>
 c100d40:	e593300c 	ldr	r3, [r3, #12]
 c100d44:	e1e02003 	mvn	r2, r3
 c100d48:	e59f3184 	ldr	r3, [pc, #388]	; c100ed4 <loop+0x1cc>
 c100d4c:	e583200c 	str	r2, [r3, #12]

		contBUT1++;
 c100d50:	e59f3180 	ldr	r3, [pc, #384]	; c100ed8 <loop+0x1d0>
 c100d54:	e5933000 	ldr	r3, [r3]
 c100d58:	e2832001 	add	r2, r3, #1
 c100d5c:	e59f3174 	ldr	r3, [pc, #372]	; c100ed8 <loop+0x1d0>
 c100d60:	e5832000 	str	r2, [r3]

		if(contBUT1%4 == 0){
 c100d64:	e59f316c 	ldr	r3, [pc, #364]	; c100ed8 <loop+0x1d0>
 c100d68:	e5933000 	ldr	r3, [r3]
 c100d6c:	e2033003 	and	r3, r3, #3
 c100d70:	e3530000 	cmp	r3, #0
 c100d74:	1a000007 	bne	c100d98 <loop+0x90>
			D8Led_digit(LETRA_E);
 c100d78:	e3a0000e 	mov	r0, #14
 c100d7c:	ebfffce0 	bl	c100104 <D8Led_digit>
			Delay(10000);
 c100d80:	e59f0154 	ldr	r0, [pc, #340]	; c100edc <loop+0x1d4>
 c100d84:	eb00005c 	bl	c100efc <Delay>
			D8Led_digit(LETRA_C);
 c100d88:	e3a0000c 	mov	r0, #12
 c100d8c:	ebfffcdc 	bl	c100104 <D8Led_digit>
			Delay(10000);
 c100d90:	e59f0144 	ldr	r0, [pc, #324]	; c100edc <loop+0x1d4>
 c100d94:	eb000058 	bl	c100efc <Delay>
		}

	}

	if (buttons & BUT2) {
 c100d98:	e51b3010 	ldr	r3, [fp, #-16]
 c100d9c:	e2033002 	and	r3, r3, #2
 c100da0:	e3530000 	cmp	r3, #0
 c100da4:	0a000011 	beq	c100df0 <loop+0xe8>
		// Tambi√©n hay que comutar el estado de movimiento del led rotante
		// representado por el campo moving de la variable RL, y en caso de
		// ponerlo en marcha debemos reiniciar el campo iter al valor del campo
		// speed.

		contBUT2++;
 c100da8:	e59f3130 	ldr	r3, [pc, #304]	; c100ee0 <loop+0x1d8>
 c100dac:	e5933000 	ldr	r3, [r3]
 c100db0:	e2832001 	add	r2, r3, #1
 c100db4:	e59f3124 	ldr	r3, [pc, #292]	; c100ee0 <loop+0x1d8>
 c100db8:	e5832000 	str	r2, [r3]

		if(contBUT2%2 == 0)
 c100dbc:	e59f311c 	ldr	r3, [pc, #284]	; c100ee0 <loop+0x1d8>
 c100dc0:	e5933000 	ldr	r3, [r3]
 c100dc4:	e2033001 	and	r3, r3, #1
 c100dc8:	e3530000 	cmp	r3, #0
 c100dcc:	1a000001 	bne	c100dd8 <loop+0xd0>
			led1_switch();
 c100dd0:	ebffff5a 	bl	c100b40 <led1_switch>
 c100dd4:	ea000000 	b	c100ddc <loop+0xd4>
		else
			led2_switch();
 c100dd8:	ebffff68 	bl	c100b80 <led2_switch>

		RL.moving = ~RL.moving;
 c100ddc:	e59f30f0 	ldr	r3, [pc, #240]	; c100ed4 <loop+0x1cc>
 c100de0:	e5933000 	ldr	r3, [r3]
 c100de4:	e1e02003 	mvn	r2, r3
 c100de8:	e59f30e4 	ldr	r3, [pc, #228]	; c100ed4 <loop+0x1cc>
 c100dec:	e5832000 	str	r2, [r3]

	}

	if (RL.moving) {
 c100df0:	e59f30dc 	ldr	r3, [pc, #220]	; c100ed4 <loop+0x1cc>
 c100df4:	e5933000 	ldr	r3, [r3]
 c100df8:	e3530000 	cmp	r3, #0
 c100dfc:	0a00002d 	beq	c100eb8 <loop+0x1b0>

		if (RL.iter == 0) {
 c100e00:	e59f30cc 	ldr	r3, [pc, #204]	; c100ed4 <loop+0x1cc>
 c100e04:	e5933008 	ldr	r3, [r3, #8]
 c100e08:	e3530000 	cmp	r3, #0
 c100e0c:	1a000024 	bne	c100ea4 <loop+0x19c>
			// La posici√≥n actual est√° representada en el campo position.
			// Recordar que queremos un movimiento circular, representado por
			// las 6 primeras posiciones en el array Segmentes del display de 8
			// segmentos, por lo que position debe estar siempre entre 0 y 5.

			if(RL.direction == 0) {
 c100e10:	e59f30bc 	ldr	r3, [pc, #188]	; c100ed4 <loop+0x1cc>
 c100e14:	e593300c 	ldr	r3, [r3, #12]
 c100e18:	e3530000 	cmp	r3, #0
 c100e1c:	1a00000c 	bne	c100e54 <loop+0x14c>
				RL.position--;
 c100e20:	e59f30ac 	ldr	r3, [pc, #172]	; c100ed4 <loop+0x1cc>
 c100e24:	e5933010 	ldr	r3, [r3, #16]
 c100e28:	e2432001 	sub	r2, r3, #1
 c100e2c:	e59f30a0 	ldr	r3, [pc, #160]	; c100ed4 <loop+0x1cc>
 c100e30:	e5832010 	str	r2, [r3, #16]

				if(RL.position < 0)
 c100e34:	e59f3098 	ldr	r3, [pc, #152]	; c100ed4 <loop+0x1cc>
 c100e38:	e5933010 	ldr	r3, [r3, #16]
 c100e3c:	e3530000 	cmp	r3, #0
 c100e40:	aa00000f 	bge	c100e84 <loop+0x17c>
					RL.position = 5;
 c100e44:	e59f3088 	ldr	r3, [pc, #136]	; c100ed4 <loop+0x1cc>
 c100e48:	e3a02005 	mov	r2, #5
 c100e4c:	e5832010 	str	r2, [r3, #16]
 c100e50:	ea00000b 	b	c100e84 <loop+0x17c>
			}
			else {
				RL.position++;
 c100e54:	e59f3078 	ldr	r3, [pc, #120]	; c100ed4 <loop+0x1cc>
 c100e58:	e5933010 	ldr	r3, [r3, #16]
 c100e5c:	e2832001 	add	r2, r3, #1
 c100e60:	e59f306c 	ldr	r3, [pc, #108]	; c100ed4 <loop+0x1cc>
 c100e64:	e5832010 	str	r2, [r3, #16]

				if(RL.position > 5)
 c100e68:	e59f3064 	ldr	r3, [pc, #100]	; c100ed4 <loop+0x1cc>
 c100e6c:	e5933010 	ldr	r3, [r3, #16]
 c100e70:	e3530005 	cmp	r3, #5
 c100e74:	da000002 	ble	c100e84 <loop+0x17c>
					RL.position = 0;
 c100e78:	e59f3054 	ldr	r3, [pc, #84]	; c100ed4 <loop+0x1cc>
 c100e7c:	e3a02000 	mov	r2, #0
 c100e80:	e5832010 	str	r2, [r3, #16]
			}

			D8Led_segment(RL.position);
 c100e84:	e59f3048 	ldr	r3, [pc, #72]	; c100ed4 <loop+0x1cc>
 c100e88:	e5933010 	ldr	r3, [r3, #16]
 c100e8c:	e1a00003 	mov	r0, r3
 c100e90:	ebfffc84 	bl	c1000a8 <D8Led_segment>
			RL.iter = RL.speed;
 c100e94:	e59f3038 	ldr	r3, [pc, #56]	; c100ed4 <loop+0x1cc>
 c100e98:	e5932004 	ldr	r2, [r3, #4]
 c100e9c:	e59f3030 	ldr	r3, [pc, #48]	; c100ed4 <loop+0x1cc>
 c100ea0:	e5832008 	str	r2, [r3, #8]

		}
		
		RL.iter--;
 c100ea4:	e59f3028 	ldr	r3, [pc, #40]	; c100ed4 <loop+0x1cc>
 c100ea8:	e5933008 	ldr	r3, [r3, #8]
 c100eac:	e2432001 	sub	r2, r3, #1
 c100eb0:	e59f301c 	ldr	r3, [pc, #28]	; c100ed4 <loop+0x1cc>
 c100eb4:	e5832008 	str	r2, [r3, #8]
	}

	Delay(2000); // espera de 200ms para que el bucle se repita 5 veces por segundo
 c100eb8:	e3a00e7d 	mov	r0, #2000	; 0x7d0
 c100ebc:	eb00000e 	bl	c100efc <Delay>
	return 0;
 c100ec0:	e3a03000 	mov	r3, #0
}
 c100ec4:	e1a00003 	mov	r0, r3
 c100ec8:	e24bd00c 	sub	sp, fp, #12
 c100ecc:	e89d6800 	ldm	sp, {fp, sp, lr}
 c100ed0:	e12fff1e 	bx	lr
 c100ed4:	0c100060 	.word	0x0c100060
 c100ed8:	0c10007c 	.word	0x0c10007c
 c100edc:	00002710 	.word	0x00002710
 c100ee0:	0c100080 	.word	0x0c100080

0c100ee4 <main>:


int main(void) {
 c100ee4:	e1a0c00d 	mov	ip, sp
 c100ee8:	e92dd800 	push	{fp, ip, lr, pc}
 c100eec:	e24cb004 	sub	fp, ip, #4

	setup();
 c100ef0:	ebffff67 	bl	c100c94 <setup>

	while (1) {
		loop();
 c100ef4:	ebffff83 	bl	c100d08 <loop>
	}
 c100ef8:	eafffffd 	b	c100ef4 <main+0x10>

0c100efc <Delay>:

void Delay(int time)
// time=0: adjust the Delay function by WatchDog timer.//
// time>0: the number of loop time//
// 100us resolution.//
{
 c100efc:	e1a0c00d 	mov	ip, sp
 c100f00:	e92dd800 	push	{fp, ip, lr, pc}
 c100f04:	e24cb004 	sub	fp, ip, #4
 c100f08:	e24dd010 	sub	sp, sp, #16
 c100f0c:	e50b0018 	str	r0, [fp, #-24]	; 0xffffffe8
	int i,adjust=0;
 c100f10:	e3a03000 	mov	r3, #0
 c100f14:	e50b3014 	str	r3, [fp, #-20]	; 0xffffffec
	if(time==0)
 c100f18:	e51b3018 	ldr	r3, [fp, #-24]	; 0xffffffe8
 c100f1c:	e3530000 	cmp	r3, #0
 c100f20:	1a000021 	bne	c100fac <Delay+0xb0>
	{
		time=200;
 c100f24:	e3a030c8 	mov	r3, #200	; 0xc8
 c100f28:	e50b3018 	str	r3, [fp, #-24]	; 0xffffffe8
		adjust=1;
 c100f2c:	e3a03001 	mov	r3, #1
 c100f30:	e50b3014 	str	r3, [fp, #-20]	; 0xffffffec
		delayLoopCount=400;
 c100f34:	e59f30d8 	ldr	r3, [pc, #216]	; c101014 <Delay+0x118>
 c100f38:	e3a02e19 	mov	r2, #400	; 0x190
 c100f3c:	e5832000 	str	r2, [r3]
		rWTCON=((MCLK/1000000-1)<<8)|(2<<3);	// 1M/64,Watch-dog,nRESET,interrupt disable//
 c100f40:	e59f30d0 	ldr	r3, [pc, #208]	; c101018 <Delay+0x11c>
 c100f44:	e59f20d0 	ldr	r2, [pc, #208]	; c10101c <Delay+0x120>
 c100f48:	e5832000 	str	r2, [r3]
		rWTDAT=0xffff;
 c100f4c:	e59f30cc 	ldr	r3, [pc, #204]	; c101020 <Delay+0x124>
 c100f50:	e59f20cc 	ldr	r2, [pc, #204]	; c101024 <Delay+0x128>
 c100f54:	e5832000 	str	r2, [r3]
		rWTCNT=0xffff;
 c100f58:	e59f30c8 	ldr	r3, [pc, #200]	; c101028 <Delay+0x12c>
 c100f5c:	e59f20c0 	ldr	r2, [pc, #192]	; c101024 <Delay+0x128>
 c100f60:	e5832000 	str	r2, [r3]
		rWTCON=((MCLK/1000000-1)<<8)|(2<<3)|(1<<5); // 1M/64,Watch-dog enable,nRESET,interrupt disable //
 c100f64:	e59f30ac 	ldr	r3, [pc, #172]	; c101018 <Delay+0x11c>
 c100f68:	e59f20bc 	ldr	r2, [pc, #188]	; c10102c <Delay+0x130>
 c100f6c:	e5832000 	str	r2, [r3]
	}
	for(;time>0;time--)
 c100f70:	ea00000d 	b	c100fac <Delay+0xb0>
		for(i=0;i<delayLoopCount;i++);
 c100f74:	e3a03000 	mov	r3, #0
 c100f78:	e50b3010 	str	r3, [fp, #-16]
 c100f7c:	ea000002 	b	c100f8c <Delay+0x90>
 c100f80:	e51b3010 	ldr	r3, [fp, #-16]
 c100f84:	e2833001 	add	r3, r3, #1
 c100f88:	e50b3010 	str	r3, [fp, #-16]
 c100f8c:	e59f3080 	ldr	r3, [pc, #128]	; c101014 <Delay+0x118>
 c100f90:	e5933000 	ldr	r3, [r3]
 c100f94:	e51b2010 	ldr	r2, [fp, #-16]
 c100f98:	e1520003 	cmp	r2, r3
 c100f9c:	bafffff7 	blt	c100f80 <Delay+0x84>
		rWTCON=((MCLK/1000000-1)<<8)|(2<<3);	// 1M/64,Watch-dog,nRESET,interrupt disable//
		rWTDAT=0xffff;
		rWTCNT=0xffff;
		rWTCON=((MCLK/1000000-1)<<8)|(2<<3)|(1<<5); // 1M/64,Watch-dog enable,nRESET,interrupt disable //
	}
	for(;time>0;time--)
 c100fa0:	e51b3018 	ldr	r3, [fp, #-24]	; 0xffffffe8
 c100fa4:	e2433001 	sub	r3, r3, #1
 c100fa8:	e50b3018 	str	r3, [fp, #-24]	; 0xffffffe8
 c100fac:	e51b3018 	ldr	r3, [fp, #-24]	; 0xffffffe8
 c100fb0:	e3530000 	cmp	r3, #0
 c100fb4:	caffffee 	bgt	c100f74 <Delay+0x78>
		for(i=0;i<delayLoopCount;i++);
	if(adjust==1)
 c100fb8:	e51b3014 	ldr	r3, [fp, #-20]	; 0xffffffec
 c100fbc:	e3530001 	cmp	r3, #1
 c100fc0:	1a000010 	bne	c101008 <Delay+0x10c>
	{
		rWTCON=((MCLK/1000000-1)<<8)|(2<<3);
 c100fc4:	e59f304c 	ldr	r3, [pc, #76]	; c101018 <Delay+0x11c>
 c100fc8:	e59f204c 	ldr	r2, [pc, #76]	; c10101c <Delay+0x120>
 c100fcc:	e5832000 	str	r2, [r3]
		i=0xffff-rWTCNT;   //  1count/16us?????????//
 c100fd0:	e59f3050 	ldr	r3, [pc, #80]	; c101028 <Delay+0x12c>
 c100fd4:	e5933000 	ldr	r3, [r3]
 c100fd8:	e2633cff 	rsb	r3, r3, #65280	; 0xff00
 c100fdc:	e28330ff 	add	r3, r3, #255	; 0xff
 c100fe0:	e50b3010 	str	r3, [fp, #-16]
		delayLoopCount=8000000/(i*64);	//400*100/(i*64/200)   //
 c100fe4:	e51b3010 	ldr	r3, [fp, #-16]
 c100fe8:	e1a03303 	lsl	r3, r3, #6
 c100fec:	e59f003c 	ldr	r0, [pc, #60]	; c101030 <Delay+0x134>
 c100ff0:	e1a01003 	mov	r1, r3
 c100ff4:	eb00000e 	bl	c101034 <__aeabi_idiv>
 c100ff8:	e1a03000 	mov	r3, r0
 c100ffc:	e1a02003 	mov	r2, r3
 c101000:	e59f300c 	ldr	r3, [pc, #12]	; c101014 <Delay+0x118>
 c101004:	e5832000 	str	r2, [r3]
	}
}
 c101008:	e24bd00c 	sub	sp, fp, #12
 c10100c:	e89d6800 	ldm	sp, {fp, sp, lr}
 c101010:	e12fff1e 	bx	lr
 c101014:	0c100074 	.word	0x0c100074
 c101018:	01d30000 	.word	0x01d30000
 c10101c:	00003f10 	.word	0x00003f10
 c101020:	01d30004 	.word	0x01d30004
 c101024:	0000ffff 	.word	0x0000ffff
 c101028:	01d30008 	.word	0x01d30008
 c10102c:	00003f30 	.word	0x00003f30
 c101030:	007a1200 	.word	0x007a1200

0c101034 <__aeabi_idiv>:
 c101034:	e3510000 	cmp	r1, #0
 c101038:	0a000043 	beq	c10114c <.divsi3_skip_div0_test+0x110>

0c10103c <.divsi3_skip_div0_test>:
 c10103c:	e020c001 	eor	ip, r0, r1
 c101040:	42611000 	rsbmi	r1, r1, #0
 c101044:	e2512001 	subs	r2, r1, #1
 c101048:	0a000027 	beq	c1010ec <.divsi3_skip_div0_test+0xb0>
 c10104c:	e1b03000 	movs	r3, r0
 c101050:	42603000 	rsbmi	r3, r0, #0
 c101054:	e1530001 	cmp	r3, r1
 c101058:	9a000026 	bls	c1010f8 <.divsi3_skip_div0_test+0xbc>
 c10105c:	e1110002 	tst	r1, r2
 c101060:	0a000028 	beq	c101108 <.divsi3_skip_div0_test+0xcc>
 c101064:	e311020e 	tst	r1, #-536870912	; 0xe0000000
 c101068:	01a01181 	lsleq	r1, r1, #3
 c10106c:	03a02008 	moveq	r2, #8
 c101070:	13a02001 	movne	r2, #1
 c101074:	e3510201 	cmp	r1, #268435456	; 0x10000000
 c101078:	31510003 	cmpcc	r1, r3
 c10107c:	31a01201 	lslcc	r1, r1, #4
 c101080:	31a02202 	lslcc	r2, r2, #4
 c101084:	3afffffa 	bcc	c101074 <.divsi3_skip_div0_test+0x38>
 c101088:	e3510102 	cmp	r1, #-2147483648	; 0x80000000
 c10108c:	31510003 	cmpcc	r1, r3
 c101090:	31a01081 	lslcc	r1, r1, #1
 c101094:	31a02082 	lslcc	r2, r2, #1
 c101098:	3afffffa 	bcc	c101088 <.divsi3_skip_div0_test+0x4c>
 c10109c:	e3a00000 	mov	r0, #0
 c1010a0:	e1530001 	cmp	r3, r1
 c1010a4:	20433001 	subcs	r3, r3, r1
 c1010a8:	21800002 	orrcs	r0, r0, r2
 c1010ac:	e15300a1 	cmp	r3, r1, lsr #1
 c1010b0:	204330a1 	subcs	r3, r3, r1, lsr #1
 c1010b4:	218000a2 	orrcs	r0, r0, r2, lsr #1
 c1010b8:	e1530121 	cmp	r3, r1, lsr #2
 c1010bc:	20433121 	subcs	r3, r3, r1, lsr #2
 c1010c0:	21800122 	orrcs	r0, r0, r2, lsr #2
 c1010c4:	e15301a1 	cmp	r3, r1, lsr #3
 c1010c8:	204331a1 	subcs	r3, r3, r1, lsr #3
 c1010cc:	218001a2 	orrcs	r0, r0, r2, lsr #3
 c1010d0:	e3530000 	cmp	r3, #0
 c1010d4:	11b02222 	lsrsne	r2, r2, #4
 c1010d8:	11a01221 	lsrne	r1, r1, #4
 c1010dc:	1affffef 	bne	c1010a0 <.divsi3_skip_div0_test+0x64>
 c1010e0:	e35c0000 	cmp	ip, #0
 c1010e4:	42600000 	rsbmi	r0, r0, #0
 c1010e8:	e12fff1e 	bx	lr
 c1010ec:	e13c0000 	teq	ip, r0
 c1010f0:	42600000 	rsbmi	r0, r0, #0
 c1010f4:	e12fff1e 	bx	lr
 c1010f8:	33a00000 	movcc	r0, #0
 c1010fc:	01a00fcc 	asreq	r0, ip, #31
 c101100:	03800001 	orreq	r0, r0, #1
 c101104:	e12fff1e 	bx	lr
 c101108:	e3510801 	cmp	r1, #65536	; 0x10000
 c10110c:	21a01821 	lsrcs	r1, r1, #16
 c101110:	23a02010 	movcs	r2, #16
 c101114:	33a02000 	movcc	r2, #0
 c101118:	e3510c01 	cmp	r1, #256	; 0x100
 c10111c:	21a01421 	lsrcs	r1, r1, #8
 c101120:	22822008 	addcs	r2, r2, #8
 c101124:	e3510010 	cmp	r1, #16
 c101128:	21a01221 	lsrcs	r1, r1, #4
 c10112c:	22822004 	addcs	r2, r2, #4
 c101130:	e3510004 	cmp	r1, #4
 c101134:	82822003 	addhi	r2, r2, #3
 c101138:	908220a1 	addls	r2, r2, r1, lsr #1
 c10113c:	e35c0000 	cmp	ip, #0
 c101140:	e1a00233 	lsr	r0, r3, r2
 c101144:	42600000 	rsbmi	r0, r0, #0
 c101148:	e12fff1e 	bx	lr
 c10114c:	e3500000 	cmp	r0, #0
 c101150:	c3e00102 	mvngt	r0, #-2147483648	; 0x80000000
 c101154:	b3a00102 	movlt	r0, #-2147483648	; 0x80000000
 c101158:	ea000007 	b	c10117c <__aeabi_idiv0>

0c10115c <__aeabi_idivmod>:
 c10115c:	e3510000 	cmp	r1, #0
 c101160:	0afffff9 	beq	c10114c <.divsi3_skip_div0_test+0x110>
 c101164:	e92d4003 	push	{r0, r1, lr}
 c101168:	ebffffb3 	bl	c10103c <.divsi3_skip_div0_test>
 c10116c:	e8bd4006 	pop	{r1, r2, lr}
 c101170:	e0030092 	mul	r3, r2, r0
 c101174:	e0411003 	sub	r1, r1, r3
 c101178:	e12fff1e 	bx	lr

0c10117c <__aeabi_idiv0>:
 c10117c:	e12fff1e 	bx	lr
